target datalayout = "e-m:e-p270:32:32-p271:32:32-p272:64:64-i64:64-i128:128-f80:128-n8:16:32:64-S128"
target triple = "x86_64-pc-linux-gnu"

%struct._someip_parameter_enum_uat = type { i32, ptr, i32, i32, i32, i32, ptr }

@.str.398 = private unnamed_addr constant [33 x i8] c"Name cannot be empty (ID: 0x%x)!\00", align 1
@.str.411 = private unnamed_addr constant [39 x i8] c"Value Name cannot be empty (ID: 0x%x)!\00", align 1
@.str.412 = private unnamed_addr constant [32 x i8] c"Number_of_Items = 0 (ID: 0x%x)!\00", align 1
@.str.413 = private unnamed_addr constant [45 x i8] c"An enum cannot reference an enum (ID: 0x%x)!\00", align 1

; Function Attrs: null_pointer_is_valid sspstrong uwtable
define internal zeroext i1 @update_someip_parameter_enum(ptr noundef %0, ptr noundef %1) #0 {
  %3 = alloca i1, align 1
  %4 = alloca ptr, align 8
  %5 = alloca ptr, align 8
  %6 = alloca ptr, align 8
  %7 = alloca i32, align 4
  store ptr %0, ptr %4, align 8
  store ptr %1, ptr %5, align 8
  call void @llvm.lifetime.start.p0(i64 8, ptr %6) #19
  %8 = load ptr, ptr %4, align 8
  store ptr %8, ptr %6, align 8
  %9 = load ptr, ptr %6, align 8
  %10 = getelementptr inbounds nuw %struct._someip_parameter_enum_uat, ptr %9, i32 0, i32 1
  %11 = load ptr, ptr %10, align 8
  %12 = icmp eq ptr %11, null
  br i1 %12, label %21, label %13

13:                                               ; preds = %2
  %14 = load ptr, ptr %6, align 8
  %15 = getelementptr inbounds nuw %struct._someip_parameter_enum_uat, ptr %14, i32 0, i32 1
  %16 = load ptr, ptr %15, align 8
  %17 = getelementptr i8, ptr %16, i64 0
  %18 = load i8, ptr %17, align 1
  %19 = sext i8 %18 to i32
  %20 = icmp eq i32 %19, 0
  br i1 %20, label %21, label %27

21:                                               ; preds = %13, %2
  %22 = load ptr, ptr %6, align 8
  %23 = getelementptr inbounds nuw %struct._someip_parameter_enum_uat, ptr %22, i32 0, i32 0
  %24 = load i32, ptr %23, align 8
  %25 = call noalias ptr (ptr, ptr, ...) @wmem_strdup_printf(ptr noundef null, ptr noundef @.str.398, i32 noundef %24)
  %26 = load ptr, ptr %5, align 8
  store ptr %25, ptr %26, align 8
  store i1 false, ptr %3, align 1
  store i32 1, ptr %7, align 4
  br label %69

27:                                               ; preds = %13
  %28 = load ptr, ptr %6, align 8
  %29 = getelementptr inbounds nuw %struct._someip_parameter_enum_uat, ptr %28, i32 0, i32 6
  %30 = load ptr, ptr %29, align 8
  %31 = icmp eq ptr %30, null
  br i1 %31, label %40, label %32

32:                                               ; preds = %27
  %33 = load ptr, ptr %6, align 8
  %34 = getelementptr inbounds nuw %struct._someip_parameter_enum_uat, ptr %33, i32 0, i32 6
  %35 = load ptr, ptr %34, align 8
  %36 = getelementptr i8, ptr %35, i64 0
  %37 = load i8, ptr %36, align 1
  %38 = sext i8 %37 to i32
  %39 = icmp eq i32 %38, 0
  br i1 %39, label %40, label %46

40:                                               ; preds = %32, %27
  %41 = load ptr, ptr %6, align 8
  %42 = getelementptr inbounds nuw %struct._someip_parameter_enum_uat, ptr %41, i32 0, i32 0
  %43 = load i32, ptr %42, align 8
  %44 = call noalias ptr (ptr, ptr, ...) @wmem_strdup_printf(ptr noundef null, ptr noundef @.str.411, i32 noundef %43)
  %45 = load ptr, ptr %5, align 8
  store ptr %44, ptr %45, align 8
  store i1 false, ptr %3, align 1
  store i32 1, ptr %7, align 4
  br label %69

46:                                               ; preds = %32
  %47 = load ptr, ptr %6, align 8
  %48 = getelementptr inbounds nuw %struct._someip_parameter_enum_uat, ptr %47, i32 0, i32 4
  %49 = load i32, ptr %48, align 8
  %50 = icmp eq i32 %49, 0
  br i1 %50, label %51, label %57

51:                                               ; preds = %46
  %52 = load ptr, ptr %6, align 8
  %53 = getelementptr inbounds nuw %struct._someip_parameter_enum_uat, ptr %52, i32 0, i32 0
  %54 = load i32, ptr %53, align 8
  %55 = call noalias ptr (ptr, ptr, ...) @wmem_strdup_printf(ptr noundef null, ptr noundef @.str.412, i32 noundef %54)
  %56 = load ptr, ptr %5, align 8
  store ptr %55, ptr %56, align 8
  store i1 false, ptr %3, align 1
  store i32 1, ptr %7, align 4
  br label %69

57:                                               ; preds = %46
  %58 = load ptr, ptr %6, align 8
  %59 = getelementptr inbounds nuw %struct._someip_parameter_enum_uat, ptr %58, i32 0, i32 2
  %60 = load i32, ptr %59, align 8
  %61 = icmp eq i32 %60, 7
  br i1 %61, label %62, label %68

62:                                               ; preds = %57
  %63 = load ptr, ptr %6, align 8
  %64 = getelementptr inbounds nuw %struct._someip_parameter_enum_uat, ptr %63, i32 0, i32 0
  %65 = load i32, ptr %64, align 8
  %66 = call noalias ptr (ptr, ptr, ...) @wmem_strdup_printf(ptr noundef null, ptr noundef @.str.413, i32 noundef %65)
  %67 = load ptr, ptr %5, align 8
  store ptr %66, ptr %67, align 8
  store i1 false, ptr %3, align 1
  store i32 1, ptr %7, align 4
  br label %69

68:                                               ; preds = %57
  store i1 true, ptr %3, align 1
  store i32 1, ptr %7, align 4
  br label %69

69:                                               ; preds = %68, %62, %51, %40, %21
  call void @llvm.lifetime.end.p0(i64 8, ptr %6) #19
  %70 = load i1, ptr %3, align 1
  ret i1 %70
}