; Function Attrs: null_pointer_is_valid sspstrong uwtable
define internal noundef zeroext i1 @update_someip_parameter_enum(ptr noundef readonly captures(none) %0, ptr noundef writeonly captures(none) %1) #0 {
  %3 = getelementptr inbounds nuw i8, ptr %0, i64 8
  %4 = load ptr, ptr %3, align 8
  %5 = icmp eq ptr %4, null
  br i1 %5, label %.sink.split, label %6

6:                                                ; preds = %2
  %7 = load i8, ptr %4, align 1
  %8 = icmp eq i8 %7, 0
  br i1 %8, label %.sink.split, label %9

9:                                                ; preds = %6
  %10 = getelementptr inbounds nuw i8, ptr %0, i64 32
  %11 = load ptr, ptr %10, align 8
  %12 = icmp eq ptr %11, null
  br i1 %12, label %.sink.split, label %13

13:                                               ; preds = %9
  %14 = load i8, ptr %11, align 1
  %15 = icmp eq i8 %14, 0
  br i1 %15, label %.sink.split, label %16

16:                                               ; preds = %13
  %17 = getelementptr inbounds nuw i8, ptr %0, i64 24
  %18 = load i32, ptr %17, align 8
  %19 = icmp eq i32 %18, 0
  br i1 %19, label %.sink.split, label %20

20:                                               ; preds = %16
  %21 = getelementptr inbounds nuw i8, ptr %0, i64 16
  %22 = load i32, ptr %21, align 8
  %23 = icmp eq i32 %22, 7
  br i1 %23, label %.sink.split, label %26

.sink.split:                                      ; preds = %20, %16, %9, %13, %2, %6
  %.str.413.sink = phi ptr [ @.str.398, %6 ], [ @.str.398, %2 ], [ @.str.411, %13 ], [ @.str.411, %9 ], [ @.str.412, %16 ], [ @.str.413, %20 ]
  %24 = load i32, ptr %0, align 8
  %25 = tail call noalias ptr (ptr, ptr, ...) @wmem_strdup_printf(ptr noundef null, ptr noundef nonnull %.str.413.sink, i32 noundef %24)
  store ptr %25, ptr %1, align 8
  br label %26

26:                                               ; preds = %.sink.split, %20
  %.0 = phi i1 [ true, %20 ], [ false, %.sink.split ]
  ret i1 %.0
}